target datalayout = "e-m:e-p270:32:32-p271:32:32-p272:64:64-i64:64-i128:128-f80:128-n8:16:32:64-S128"
target triple = "x86_64-pc-linux-gnu"

%struct.redisServer = type { i32, i64, ptr, ptr, ptr, i32, i32, i32, i32, i32, ptr, ptr, ptr, ptr, ptr, i32, i32, i32, i32, i64, i32, i32, i32, i32, ptr, i32, i32, [41 x i8], i32, i64, i32, i32, i32, ptr, ptr, i32, i32, i64, ptr, ptr, ptr, ptr, [2 x i32], i32, i32, i32, i32, i32, i32, [16 x ptr], i32, ptr, ptr, i32, [8 x %struct.connListener], i32, %struct.connListener, ptr, ptr, ptr, ptr, ptr, ptr, ptr, ptr, ptr, ptr, i32, ptr, i32, ptr, [3 x %struct.pause_event], [256 x i8], ptr, i64, i32, i32, [128 x i32], i32, i32, i64, i32, i32, i32, i32, i32, i64, i64, i64, i64, i64, i64, i64, i64, i64, i64, double, i64, i64, i64, i64, i64, i64, i64, i64, i64, i64, i64, i64, i64, i64, i64, i64, i64, i64, i64, i64, i64, double, i64, i64, i64, i64, i64, ptr, i64, i64, i64, %struct.malloc_stats, i64, i64, i64, i64, i64, i64, i64, i64, i64, i64, i64, i64, double, [4 x i64], i64, i64, i64, i64, [128 x i64], [128 x i64], i64, i64, [7 x %struct.anon], i64, i64, i64, i64, i64, i64, [4 x %struct.durationStats], i32, i32, i32, i32, i32, i32, i32, i32, i32, i32, i32, i32, i64, i32, i32, i32, i32, i64, i64, i32, i32, i32, i32, i32, ptr, [3 x %struct.clientBufferLimitsConfig], i32, i32, i32, ptr, i32, i32, i32, i32, i32, i32, ptr, ptr, i32, i32, i64, i64, i64, i64, i64, i32, i32, ptr, i32, i32, i64, i64, i64, i64, i64, i32, i32, i64, i32, i32, i32, i32, i32, i32, i32, i32, ptr, i32, i64, i64, i64, i64, i32, ptr, i32, ptr, i32, i32, i32, i64, i64, i64, i64, i32, i32, i32, i32, i32, i32, ptr, i32, i32, ptr, i32, i32, i32, [2 x i32], i32, %struct.redisOpArray, i32, ptr, i32, ptr, i32, i32, i32, i32, i32, i32, i32, [41 x i8], [41 x i8], i64, i64, i64, i64, i32, i32, ptr, i64, i64, %struct.replDataBuf, i64, i64, i32, i32, i32, i32, i32, i32, i32, i32, i32, i64, ptr, i64, ptr, ptr, ptr, i32, i32, ptr, ptr, i32, i32, i32, i64, i64, i64, i64, ptr, ptr, i32, ptr, i64, i32, i32, i32, i64, i32, i32, i32, i32, ptr, i32, i32, [41 x i8], i64, i32, ptr, i32, i32, i64, i64, i32, i32, i32, i32, i32, i64, [3 x i32], i32, i32, i32, [10 x i32], ptr, ptr, i32, i64, ptr, ptr, i32, i32, i32, i32, i64, i64, i64, i64, i64, i64, i64, i64, i64, i64, i32, i32, i64, i64, i32, i64, i64, i64, i64, i64, ptr, ptr, i32, ptr, i32, i32, i32, i32, i64, i64, ptr, ptr, i32, i32, i32, i32, i32, ptr, ptr, ptr, i32, i32, i32, i32, i32, i32, i32, i64, i32, i32, i64, i32, i32, i32, i32, i32, i32, i32, i64, ptr, ptr, i64, ptr, i32, %struct.aclInfo, i32, i64, i32, i32, i32, %struct.redisTLSContextConfig, ptr, ptr, ptr, ptr, ptr, i64, i32, ptr, i32, i32, i32, i64, i32, ptr }
%struct.connListener = type { [16 x i32], i32, ptr, i32, i32, ptr, ptr }
%struct.pause_event = type { i32, i64 }
%struct.malloc_stats = type { i64, i64, i64, i64, i64, i64, i64, i64, i64, i64, i64 }
%struct.anon = type { i64, i64, [16 x i64], i32 }
%struct.durationStats = type { i64, i64, i64 }
%struct.clientBufferLimitsConfig = type { i64, i64, i64 }
%struct.redisOpArray = type { ptr, i32, i32 }
%struct.replDataBuf = type { ptr, i64, i64, i64, i64 }
%struct.aclInfo = type { i64, i64, i64, i64 }
%struct.redisTLSContextConfig = type { ptr, ptr, ptr, ptr, ptr, ptr, ptr, ptr, ptr, ptr, ptr, ptr, i32, i32, i32, i32 }
%struct.readyList = type { ptr, ptr }
%struct.redisDb = type { ptr, ptr, ptr, ptr, ptr, ptr, ptr, i32, i64, i64, ptr }

@server = external global %struct.redisServer, align 8

; Function Attrs: nounwind uwtable
define internal i32 @getBlockedTypeByType(i32 noundef %0) #0 {
  %2 = alloca i32, align 4
  %3 = alloca i32, align 4
  store i32 %0, ptr %3, align 4, !tbaa !36
  %4 = load i32, ptr %3, align 4, !tbaa !36
  switch i32 %4, label %9 [
    i32 1, label %5
    i32 3, label %6
    i32 5, label %7
    i32 6, label %8
  ]

5:                                                ; preds = %1
  store i32 1, ptr %2, align 4
  br label %10

6:                                                ; preds = %1
  store i32 6, ptr %2, align 4
  br label %10

7:                                                ; preds = %1
  store i32 4, ptr %2, align 4
  br label %10

8:                                                ; preds = %1
  store i32 5, ptr %2, align 4
  br label %10

9:                                                ; preds = %1
  store i32 0, ptr %2, align 4
  br label %10

10:                                               ; preds = %9, %8, %7, %6, %5
  %11 = load i32, ptr %2, align 4
  ret i32 %11
}

; Function Attrs: nounwind uwtable
define internal void @signalKeyAsReadyLogic(ptr noundef %0, ptr noundef %1, i32 noundef %2, i32 noundef %3) #0 {
  %5 = alloca ptr, align 8
  %6 = alloca ptr, align 8
  %7 = alloca i32, align 4
  %8 = alloca i32, align 4
  %9 = alloca ptr, align 8
  %10 = alloca i32, align 4
  %11 = alloca i32, align 4
  %12 = alloca ptr, align 8
  %13 = alloca ptr, align 8
  store ptr %0, ptr %5, align 8, !tbaa !114
  store ptr %1, ptr %6, align 8, !tbaa !107
  store i32 %2, ptr %7, align 4, !tbaa !36
  store i32 %3, ptr %8, align 4, !tbaa !36
  call void @llvm.lifetime.start.p0(i64 8, ptr %9) #8
  call void @llvm.lifetime.start.p0(i64 4, ptr %10) #8
  %14 = load i32, ptr %7, align 4, !tbaa !36
  %15 = call i32 @getBlockedTypeByType(i32 noundef %14)
  store i32 %15, ptr %10, align 4, !tbaa !36
  %16 = load i32, ptr %10, align 4, !tbaa !36
  %17 = icmp eq i32 %16, 0
  br i1 %17, label %18, label %19

18:                                               ; preds = %4
  store i32 1, ptr %11, align 4
  br label %74

19:                                               ; preds = %4
  %20 = load i32, ptr %10, align 4, !tbaa !36
  %21 = sext i32 %20 to i64
  %22 = getelementptr inbounds [10 x i32], ptr getelementptr inbounds nuw (%struct.redisServer, ptr @server, i32 0, i32 343), i64 0, i64 %21
  %23 = load i32, ptr %22, align 4, !tbaa !36
  %24 = icmp ne i32 %23, 0
  br i1 %24, label %29, label %25

25:                                               ; preds = %19
  %26 = load i32, ptr getelementptr inbounds ([10 x i32], ptr getelementptr inbounds nuw (%struct.redisServer, ptr @server, i32 0, i32 343), i64 0, i64 4), align 8, !tbaa !36
  %27 = icmp ne i32 %26, 0
  br i1 %27, label %29, label %28

28:                                               ; preds = %25
  store i32 1, ptr %11, align 4
  br label %74

29:                                               ; preds = %25, %19
  %30 = load i32, ptr %8, align 4, !tbaa !36
  %31 = icmp ne i32 %30, 0
  br i1 %31, label %32, label %41

32:                                               ; preds = %29
  %33 = load ptr, ptr %5, align 8, !tbaa !114
  %34 = getelementptr inbounds nuw %struct.redisDb, ptr %33, i32 0, i32 4
  %35 = load ptr, ptr %34, align 8, !tbaa !112
  %36 = load ptr, ptr %6, align 8, !tbaa !107
  %37 = call ptr @dictFind(ptr noundef %35, ptr noundef %36)
  %38 = icmp eq ptr %37, null
  br i1 %38, label %39, label %40

39:                                               ; preds = %32
  store i32 1, ptr %11, align 4
  br label %74

40:                                               ; preds = %32
  br label %50

41:                                               ; preds = %29
  %42 = load ptr, ptr %5, align 8, !tbaa !114
  %43 = getelementptr inbounds nuw %struct.redisDb, ptr %42, i32 0, i32 3
  %44 = load ptr, ptr %43, align 8, !tbaa !106
  %45 = load ptr, ptr %6, align 8, !tbaa !107
  %46 = call ptr @dictFind(ptr noundef %44, ptr noundef %45)
  %47 = icmp eq ptr %46, null
  br i1 %47, label %48, label %49

48:                                               ; preds = %41
  store i32 1, ptr %11, align 4
  br label %74

49:                                               ; preds = %41
  br label %50

50:                                               ; preds = %49, %40
  call void @llvm.lifetime.start.p0(i64 8, ptr %12) #8
  call void @llvm.lifetime.start.p0(i64 8, ptr %13) #8
  %51 = load ptr, ptr %5, align 8, !tbaa !114
  %52 = getelementptr inbounds nuw %struct.redisDb, ptr %51, i32 0, i32 5
  %53 = load ptr, ptr %52, align 8, !tbaa !101
  %54 = load ptr, ptr %6, align 8, !tbaa !107
  %55 = call ptr @dictAddRaw(ptr noundef %53, ptr noundef %54, ptr noundef %13)
  store ptr %55, ptr %12, align 8, !tbaa !85
  %56 = load ptr, ptr %12, align 8, !tbaa !85
  %57 = icmp ne ptr %56, null
  br i1 %57, label %58, label %60

58:                                               ; preds = %50
  %59 = load ptr, ptr %6, align 8, !tbaa !107
  call void @incrRefCount(ptr noundef %59)
  br label %61

60:                                               ; preds = %50
  store i32 1, ptr %11, align 4
  br label %73

61:                                               ; preds = %58
  %62 = call noalias ptr @zmalloc(i64 noundef 16) #9
  store ptr %62, ptr %9, align 8, !tbaa !97
  %63 = load ptr, ptr %6, align 8, !tbaa !107
  %64 = load ptr, ptr %9, align 8, !tbaa !97
  %65 = getelementptr inbounds nuw %struct.readyList, ptr %64, i32 0, i32 1
  store ptr %63, ptr %65, align 8, !tbaa !103
  %66 = load ptr, ptr %5, align 8, !tbaa !114
  %67 = load ptr, ptr %9, align 8, !tbaa !97
  %68 = getelementptr inbounds nuw %struct.readyList, ptr %67, i32 0, i32 0
  store ptr %66, ptr %68, align 8, !tbaa !99
  %69 = load ptr, ptr %6, align 8, !tbaa !107
  call void @incrRefCount(ptr noundef %69)
  %70 = load ptr, ptr getelementptr inbounds nuw (%struct.redisServer, ptr @server, i32 0, i32 345), align 8, !tbaa !95
  %71 = load ptr, ptr %9, align 8, !tbaa !97
  %72 = call ptr @listAddNodeTail(ptr noundef %70, ptr noundef %71)
  store i32 0, ptr %11, align 4
  br label %73

73:                                               ; preds = %61, %60
  call void @llvm.lifetime.end.p0(i64 8, ptr %13) #8
  call void @llvm.lifetime.end.p0(i64 8, ptr %12) #8
  br label %74

74:                                               ; preds = %73, %48, %39, %28, %18
  call void @llvm.lifetime.end.p0(i64 4, ptr %10) #8
  call void @llvm.lifetime.end.p0(i64 8, ptr %9) #8
  %75 = load i32, ptr %11, align 4
  switch i32 %75, label %77 [
    i32 0, label %76
    i32 1, label %76
  ]

76:                                               ; preds = %74, %74
  ret void

77:                                               ; preds = %74
  unreachable
}