; Function Attrs: nounwind uwtable
define internal fastcc void @signalKeyAsReadyLogic(ptr noundef %0, ptr noundef %1, i32 noundef %2, i32 noundef range(i32 0, 2) %3) unnamed_addr #0 {
  %5 = alloca ptr, align 8
  %switch.tableidx = add i32 %2, -1
  %6 = icmp ult i32 %switch.tableidx, 6
  br i1 %6, label %switch.hole_check, label %getBlockedTypeByType.exit

switch.hole_check:                                ; preds = %4
  %switch.maskindex = trunc nuw i32 %switch.tableidx to i8
  %switch.shifted = lshr i8 53, %switch.maskindex
  %switch.lobit = trunc i8 %switch.shifted to i1
  br i1 %switch.lobit, label %switch.lookup, label %getBlockedTypeByType.exit

switch.lookup:                                    ; preds = %switch.hole_check
  %7 = zext nneg i32 %switch.tableidx to i64
  %switch.gep = getelementptr inbounds nuw [6 x i64], ptr @switch.table.signalKeyAsReadyLogic, i64 0, i64 %7
  %switch.load = load i64, ptr %switch.gep, align 8
  %8 = getelementptr inbounds nuw [10 x i32], ptr getelementptr inbounds nuw (i8, ptr @server, i64 7592), i64 0, i64 %switch.load
  %9 = load i32, ptr %8, align 4, !tbaa !56
  %10 = icmp ne i32 %9, 0
  %11 = load i32, ptr getelementptr inbounds nuw (i8, ptr @server, i64 7608), align 8
  %12 = icmp ne i32 %11, 0
  %or.cond = select i1 %10, i1 true, i1 %12
  br i1 %or.cond, label %13, label %getBlockedTypeByType.exit

13:                                               ; preds = %switch.lookup
  %.not = icmp eq i32 %3, 0
  br i1 %.not, label %19, label %14

14:                                               ; preds = %13
  %15 = getelementptr inbounds nuw i8, ptr %0, i64 32
  %16 = load ptr, ptr %15, align 8, !tbaa !107
  %17 = tail call ptr @dictFind(ptr noundef %16, ptr noundef %1) #5
  %18 = icmp eq ptr %17, null
  br i1 %18, label %getBlockedTypeByType.exit, label %24

19:                                               ; preds = %13
  %20 = getelementptr inbounds nuw i8, ptr %0, i64 24
  %21 = load ptr, ptr %20, align 8, !tbaa !95
  %22 = tail call ptr @dictFind(ptr noundef %21, ptr noundef %1) #5
  %23 = icmp eq ptr %22, null
  br i1 %23, label %getBlockedTypeByType.exit, label %24

24:                                               ; preds = %19, %14
  call void @llvm.lifetime.start.p0(i64 8, ptr nonnull %5) #5
  %25 = getelementptr inbounds nuw i8, ptr %0, i64 40
  %26 = load ptr, ptr %25, align 8, !tbaa !92
  %27 = call ptr @dictAddRaw(ptr noundef %26, ptr noundef %1, ptr noundef nonnull %5) #5
  %.not18 = icmp eq ptr %27, null
  br i1 %.not18, label %33, label %28

28:                                               ; preds = %24
  call void @incrRefCount(ptr noundef %1) #5
  %29 = call noalias dereferenceable_or_null(16) ptr @zmalloc(i64 noundef 16) #7
  %30 = getelementptr inbounds nuw i8, ptr %29, i64 8
  store ptr %1, ptr %30, align 8, !tbaa !94
  store ptr %0, ptr %29, align 8, !tbaa !90
  call void @incrRefCount(ptr noundef %1) #5
  %31 = load ptr, ptr getelementptr inbounds nuw (i8, ptr @server, i64 7640), align 8, !tbaa !89
  %32 = call ptr @listAddNodeTail(ptr noundef %31, ptr noundef nonnull %29) #5
  br label %33

33:                                               ; preds = %24, %28
  call void @llvm.lifetime.end.p0(i64 8, ptr nonnull %5) #5
  br label %getBlockedTypeByType.exit

getBlockedTypeByType.exit:                        ; preds = %switch.hole_check, %4, %19, %14, %switch.lookup, %33
  ret void
}